target datalayout = "e-m:e-p270:32:32-p271:32:32-p272:64:64-i64:64-i128:128-f80:128-n8:16:32:64-S128"
target triple = "x86_64-pc-linux-gnu"

%struct.AVFilterLink = type { ptr, ptr, ptr, ptr, i32, i32, i32, i32, %struct.AVRational, i32, i32, i32, %struct.AVChannelLayout, %struct.AVRational, ptr, i32, %struct.AVFilterFormatsConfig, %struct.AVFilterFormatsConfig }
%struct.AVChannelLayout = type { i32, i32, %union.anon.1, ptr }
%union.anon.1 = type { i64 }
%struct.AVRational = type { i32, i32 }
%struct.AVFilterFormatsConfig = type { ptr, ptr, ptr, ptr, ptr }
%struct.AVFilterContext = type { ptr, ptr, ptr, ptr, ptr, i32, ptr, ptr, i32, ptr, ptr, i32, i32, ptr, ptr, ptr, ptr, i32, ptr, i32, i32 }
%struct.BPNContext = type { ptr, i32, i32, i32, [4 x i32], [4 x i32], i32 }
%struct.AVPixFmtDescriptor = type { ptr, i8, i8, i8, i64, [4 x %struct.AVComponentDescriptor], ptr }
%struct.AVComponentDescriptor = type { i32, i32, i32, i32, i32 }

; Function Attrs: nounwind uwtable
define internal i32 @config_input(ptr noundef %0) #0 {
  %2 = alloca ptr, align 8
  %3 = alloca ptr, align 8
  %4 = alloca ptr, align 8
  %5 = alloca ptr, align 8
  store ptr %0, ptr %2, align 8, !tbaa !4
  call void @llvm.lifetime.start.p0(i64 8, ptr %3) #7
  %6 = load ptr, ptr %2, align 8, !tbaa !4
  %7 = getelementptr inbounds nuw %struct.AVFilterLink, ptr %6, i32 0, i32 5
  %8 = load i32, ptr %7, align 4, !tbaa !63
  %9 = call ptr @av_pix_fmt_desc_get(i32 noundef %8)
  store ptr %9, ptr %3, align 8, !tbaa !64
  call void @llvm.lifetime.start.p0(i64 8, ptr %4) #7
  %10 = load ptr, ptr %2, align 8, !tbaa !4
  %11 = getelementptr inbounds nuw %struct.AVFilterLink, ptr %10, i32 0, i32 2
  %12 = load ptr, ptr %11, align 8, !tbaa !11
  store ptr %12, ptr %4, align 8, !tbaa !23
  call void @llvm.lifetime.start.p0(i64 8, ptr %5) #7
  %13 = load ptr, ptr %4, align 8, !tbaa !23
  %14 = getelementptr inbounds nuw %struct.AVFilterContext, ptr %13, i32 0, i32 9
  %15 = load ptr, ptr %14, align 8, !tbaa !34
  store ptr %15, ptr %5, align 8, !tbaa !35
  %16 = load ptr, ptr %3, align 8, !tbaa !64
  %17 = getelementptr inbounds nuw %struct.AVPixFmtDescriptor, ptr %16, i32 0, i32 1
  %18 = load i8, ptr %17, align 8, !tbaa !66
  %19 = zext i8 %18 to i32
  %20 = load ptr, ptr %5, align 8, !tbaa !35
  %21 = getelementptr inbounds nuw %struct.BPNContext, ptr %20, i32 0, i32 3
  store i32 %19, ptr %21, align 8, !tbaa !44
  %22 = load ptr, ptr %3, align 8, !tbaa !64
  %23 = getelementptr inbounds nuw %struct.AVPixFmtDescriptor, ptr %22, i32 0, i32 3
  %24 = load i8, ptr %23, align 2, !tbaa !69
  %25 = call i1 @llvm.is.constant.i8(i8 %24)
  br i1 %25, label %37, label %26

26:                                               ; preds = %1
  %27 = load ptr, ptr %2, align 8, !tbaa !4
  %28 = getelementptr inbounds nuw %struct.AVFilterLink, ptr %27, i32 0, i32 7
  %29 = load i32, ptr %28, align 4, !tbaa !43
  %30 = sub nsw i32 0, %29
  %31 = load ptr, ptr %3, align 8, !tbaa !64
  %32 = getelementptr inbounds nuw %struct.AVPixFmtDescriptor, ptr %31, i32 0, i32 3
  %33 = load i8, ptr %32, align 2, !tbaa !69
  %34 = zext i8 %33 to i32
  %35 = ashr i32 %30, %34
  %36 = sub nsw i32 0, %35
  br label %53

37:                                               ; preds = %1
  %38 = load ptr, ptr %2, align 8, !tbaa !4
  %39 = getelementptr inbounds nuw %struct.AVFilterLink, ptr %38, i32 0, i32 7
  %40 = load i32, ptr %39, align 4, !tbaa !43
  %41 = load ptr, ptr %3, align 8, !tbaa !64
  %42 = getelementptr inbounds nuw %struct.AVPixFmtDescriptor, ptr %41, i32 0, i32 3
  %43 = load i8, ptr %42, align 2, !tbaa !69
  %44 = zext i8 %43 to i32
  %45 = shl i32 1, %44
  %46 = add nsw i32 %40, %45
  %47 = sub nsw i32 %46, 1
  %48 = load ptr, ptr %3, align 8, !tbaa !64
  %49 = getelementptr inbounds nuw %struct.AVPixFmtDescriptor, ptr %48, i32 0, i32 3
  %50 = load i8, ptr %49, align 2, !tbaa !69
  %51 = zext i8 %50 to i32
  %52 = ashr i32 %47, %51
  br label %53

53:                                               ; preds = %37, %26
  %54 = phi i32 [ %36, %26 ], [ %52, %37 ]
  %55 = load ptr, ptr %5, align 8, !tbaa !35
  %56 = getelementptr inbounds nuw %struct.BPNContext, ptr %55, i32 0, i32 4
  %57 = getelementptr inbounds [4 x i32], ptr %56, i64 0, i64 2
  store i32 %54, ptr %57, align 4, !tbaa !39
  %58 = load ptr, ptr %5, align 8, !tbaa !35
  %59 = getelementptr inbounds nuw %struct.BPNContext, ptr %58, i32 0, i32 4
  %60 = getelementptr inbounds [4 x i32], ptr %59, i64 0, i64 1
  store i32 %54, ptr %60, align 4, !tbaa !39
  %61 = load ptr, ptr %2, align 8, !tbaa !4
  %62 = getelementptr inbounds nuw %struct.AVFilterLink, ptr %61, i32 0, i32 7
  %63 = load i32, ptr %62, align 4, !tbaa !43
  %64 = load ptr, ptr %5, align 8, !tbaa !35
  %65 = getelementptr inbounds nuw %struct.BPNContext, ptr %64, i32 0, i32 4
  %66 = getelementptr inbounds [4 x i32], ptr %65, i64 0, i64 3
  store i32 %63, ptr %66, align 4, !tbaa !39
  %67 = load ptr, ptr %5, align 8, !tbaa !35
  %68 = getelementptr inbounds nuw %struct.BPNContext, ptr %67, i32 0, i32 4
  %69 = getelementptr inbounds [4 x i32], ptr %68, i64 0, i64 0
  store i32 %63, ptr %69, align 4, !tbaa !39
  %70 = load ptr, ptr %3, align 8, !tbaa !64
  %71 = getelementptr inbounds nuw %struct.AVPixFmtDescriptor, ptr %70, i32 0, i32 2
  %72 = load i8, ptr %71, align 1, !tbaa !70
  %73 = call i1 @llvm.is.constant.i8(i8 %72)
  br i1 %73, label %85, label %74

74:                                               ; preds = %53
  %75 = load ptr, ptr %2, align 8, !tbaa !4
  %76 = getelementptr inbounds nuw %struct.AVFilterLink, ptr %75, i32 0, i32 6
  %77 = load i32, ptr %76, align 8, !tbaa !42
  %78 = sub nsw i32 0, %77
  %79 = load ptr, ptr %3, align 8, !tbaa !64
  %80 = getelementptr inbounds nuw %struct.AVPixFmtDescriptor, ptr %79, i32 0, i32 2
  %81 = load i8, ptr %80, align 1, !tbaa !70
  %82 = zext i8 %81 to i32
  %83 = ashr i32 %78, %82
  %84 = sub nsw i32 0, %83
  br label %101

85:                                               ; preds = %53
  %86 = load ptr, ptr %2, align 8, !tbaa !4
  %87 = getelementptr inbounds nuw %struct.AVFilterLink, ptr %86, i32 0, i32 6
  %88 = load i32, ptr %87, align 8, !tbaa !42
  %89 = load ptr, ptr %3, align 8, !tbaa !64
  %90 = getelementptr inbounds nuw %struct.AVPixFmtDescriptor, ptr %89, i32 0, i32 2
  %91 = load i8, ptr %90, align 1, !tbaa !70
  %92 = zext i8 %91 to i32
  %93 = shl i32 1, %92
  %94 = add nsw i32 %88, %93
  %95 = sub nsw i32 %94, 1
  %96 = load ptr, ptr %3, align 8, !tbaa !64
  %97 = getelementptr inbounds nuw %struct.AVPixFmtDescriptor, ptr %96, i32 0, i32 2
  %98 = load i8, ptr %97, align 1, !tbaa !70
  %99 = zext i8 %98 to i32
  %100 = ashr i32 %95, %99
  br label %101

101:                                              ; preds = %85, %74
  %102 = phi i32 [ %84, %74 ], [ %100, %85 ]
  %103 = load ptr, ptr %5, align 8, !tbaa !35
  %104 = getelementptr inbounds nuw %struct.BPNContext, ptr %103, i32 0, i32 5
  %105 = getelementptr inbounds [4 x i32], ptr %104, i64 0, i64 2
  store i32 %102, ptr %105, align 4, !tbaa !39
  %106 = load ptr, ptr %5, align 8, !tbaa !35
  %107 = getelementptr inbounds nuw %struct.BPNContext, ptr %106, i32 0, i32 5
  %108 = getelementptr inbounds [4 x i32], ptr %107, i64 0, i64 1
  store i32 %102, ptr %108, align 4, !tbaa !39
  %109 = load ptr, ptr %2, align 8, !tbaa !4
  %110 = getelementptr inbounds nuw %struct.AVFilterLink, ptr %109, i32 0, i32 6
  %111 = load i32, ptr %110, align 8, !tbaa !42
  %112 = load ptr, ptr %5, align 8, !tbaa !35
  %113 = getelementptr inbounds nuw %struct.BPNContext, ptr %112, i32 0, i32 5
  %114 = getelementptr inbounds [4 x i32], ptr %113, i64 0, i64 3
  store i32 %111, ptr %114, align 4, !tbaa !39
  %115 = load ptr, ptr %5, align 8, !tbaa !35
  %116 = getelementptr inbounds nuw %struct.BPNContext, ptr %115, i32 0, i32 5
  %117 = getelementptr inbounds [4 x i32], ptr %116, i64 0, i64 0
  store i32 %111, ptr %117, align 4, !tbaa !39
  %118 = load ptr, ptr %3, align 8, !tbaa !64
  %119 = getelementptr inbounds nuw %struct.AVPixFmtDescriptor, ptr %118, i32 0, i32 5
  %120 = getelementptr inbounds [4 x %struct.AVComponentDescriptor], ptr %119, i64 0, i64 0
  %121 = getelementptr inbounds nuw %struct.AVComponentDescriptor, ptr %120, i32 0, i32 4
  %122 = load i32, ptr %121, align 8, !tbaa !71
  %123 = load ptr, ptr %5, align 8, !tbaa !35
  %124 = getelementptr inbounds nuw %struct.BPNContext, ptr %123, i32 0, i32 6
  store i32 %122, ptr %124, align 4, !tbaa !40
  call void @llvm.lifetime.end.p0(i64 8, ptr %5) #7
  call void @llvm.lifetime.end.p0(i64 8, ptr %4) #7
  call void @llvm.lifetime.end.p0(i64 8, ptr %3) #7
  ret i32 0
}