; Function Attrs: nounwind uwtable
define internal noundef i32 @config_input(ptr noundef readonly captures(none) %0) #0 {
  %2 = getelementptr inbounds nuw i8, ptr %0, i64 36
  %3 = load i32, ptr %2, align 4, !tbaa !58
  %4 = tail call ptr @av_pix_fmt_desc_get(i32 noundef %3) #6
  %5 = getelementptr inbounds nuw i8, ptr %0, i64 16
  %6 = load ptr, ptr %5, align 8, !tbaa !9
  %7 = getelementptr inbounds nuw i8, ptr %6, i64 72
  %8 = load ptr, ptr %7, align 8, !tbaa !33
  %9 = getelementptr inbounds nuw i8, ptr %4, i64 8
  %10 = load i8, ptr %9, align 8, !tbaa !59
  %11 = zext i8 %10 to i32
  %12 = getelementptr inbounds nuw i8, ptr %8, i64 16
  store i32 %11, ptr %12, align 8, !tbaa !40
  %13 = getelementptr inbounds nuw i8, ptr %0, i64 44
  %14 = load i32, ptr %13, align 4, !tbaa !39
  %15 = sub nsw i32 0, %14
  %16 = getelementptr inbounds nuw i8, ptr %4, i64 10
  %17 = load i8, ptr %16, align 2, !tbaa !62
  %18 = zext nneg i8 %17 to i32
  %19 = ashr i32 %15, %18
  %20 = sub nsw i32 0, %19
  %21 = getelementptr inbounds nuw i8, ptr %8, i64 20
  %22 = getelementptr inbounds nuw i8, ptr %8, i64 28
  store i32 %20, ptr %22, align 4, !tbaa !41
  %23 = getelementptr inbounds nuw i8, ptr %8, i64 24
  store i32 %20, ptr %23, align 4, !tbaa !41
  %24 = getelementptr inbounds nuw i8, ptr %0, i64 44
  %25 = load i32, ptr %24, align 4, !tbaa !39
  %26 = getelementptr inbounds nuw i8, ptr %8, i64 32
  store i32 %25, ptr %26, align 4, !tbaa !41
  store i32 %25, ptr %21, align 4, !tbaa !41
  %27 = getelementptr inbounds nuw i8, ptr %0, i64 40
  %28 = load i32, ptr %27, align 8, !tbaa !38
  %29 = sub nsw i32 0, %28
  %30 = getelementptr inbounds nuw i8, ptr %4, i64 9
  %31 = load i8, ptr %30, align 1, !tbaa !63
  %32 = zext nneg i8 %31 to i32
  %33 = ashr i32 %29, %32
  %34 = sub nsw i32 0, %33
  %35 = getelementptr inbounds nuw i8, ptr %8, i64 36
  %36 = getelementptr inbounds nuw i8, ptr %8, i64 44
  store i32 %34, ptr %36, align 4, !tbaa !41
  %37 = getelementptr inbounds nuw i8, ptr %8, i64 40
  store i32 %34, ptr %37, align 4, !tbaa !41
  %38 = getelementptr inbounds nuw i8, ptr %0, i64 40
  %39 = load i32, ptr %38, align 8, !tbaa !38
  %40 = getelementptr inbounds nuw i8, ptr %8, i64 48
  store i32 %39, ptr %40, align 4, !tbaa !41
  store i32 %39, ptr %35, align 4, !tbaa !41
  %41 = getelementptr inbounds nuw i8, ptr %4, i64 40
  %42 = load i32, ptr %41, align 8, !tbaa !64
  %43 = getelementptr inbounds nuw i8, ptr %8, i64 52
  store i32 %42, ptr %43, align 4, !tbaa !36
  ret i32 0
}